#include <math.h>
#include <stdio.h>
#include <stdlib.h>
#include <string.h>

int main()
{
	char str[1000],c1,c2;
	int i,j,num=0;
	gets(str);
	for(i=0;(str[i])!='\0';i++)
	{
		c1=str[i];
		if(c1==' ') 
		{
			for(j=i+1;(c2=str[j])==' ';j++)
			{
				num+=1;
			}
			for(j=i+1;str[j]!='\0';j++)
			{
				str[j]=str[j+num];
			}
			num=0;
		}
	}
	printf("%s",str);
}