; ModuleID = '62/2846.c'
source_filename = "62/2846.c"
target datalayout = "e-m:e-p270:32:32-p271:32:32-p272:64:64-i64:64-f80:128-n8:16:32:64-S128"
target triple = "x86_64-pc-linux-gnu"

@.str = private unnamed_addr constant [3 x i8] c"%s\00", align 1

; Function Attrs: noinline nounwind uwtable
define dso_local i32 @main() #0 {
  %1 = alloca i32, align 4
  %2 = alloca [1000 x i8], align 16
  %3 = alloca i8, align 1
  %4 = alloca i8, align 1
  %5 = alloca i32, align 4
  %6 = alloca i32, align 4
  %7 = alloca i32, align 4
  store i32 0, i32* %1, align 4
  store i32 0, i32* %7, align 4
  %8 = getelementptr inbounds [1000 x i8], [1000 x i8]* %2, i64 0, i64 0
  %9 = call i32 (i8*, ...) bitcast (i32 (...)* @gets to i32 (i8*, ...)*)(i8* %8)
  store i32 0, i32* %5, align 4
  br label %10

10:                                               ; preds = %66, %0
  %11 = load i32, i32* %5, align 4
  %12 = sext i32 %11 to i64
  %13 = getelementptr inbounds [1000 x i8], [1000 x i8]* %2, i64 0, i64 %12
  %14 = load i8, i8* %13, align 1
  %15 = sext i8 %14 to i32
  %16 = icmp ne i32 %15, 0
  br i1 %16, label %17, label %69

17:                                               ; preds = %10
  %18 = load i32, i32* %5, align 4
  %19 = sext i32 %18 to i64
  %20 = getelementptr inbounds [1000 x i8], [1000 x i8]* %2, i64 0, i64 %19
  %21 = load i8, i8* %20, align 1
  store i8 %21, i8* %3, align 1
  %22 = load i8, i8* %3, align 1
  %23 = sext i8 %22 to i32
  %24 = icmp eq i32 %23, 32
  br i1 %24, label %25, label %65

25:                                               ; preds = %17
  %26 = load i32, i32* %5, align 4
  %27 = add nsw i32 %26, 1
  store i32 %27, i32* %6, align 4
  br label %28

28:                                               ; preds = %38, %25
  %29 = load i32, i32* %6, align 4
  %30 = sext i32 %29 to i64
  %31 = getelementptr inbounds [1000 x i8], [1000 x i8]* %2, i64 0, i64 %30
  %32 = load i8, i8* %31, align 1
  store i8 %32, i8* %4, align 1
  %33 = sext i8 %32 to i32
  %34 = icmp eq i32 %33, 32
  br i1 %34, label %35, label %41

35:                                               ; preds = %28
  %36 = load i32, i32* %7, align 4
  %37 = add nsw i32 %36, 1
  store i32 %37, i32* %7, align 4
  br label %38

38:                                               ; preds = %35
  %39 = load i32, i32* %6, align 4
  %40 = add nsw i32 %39, 1
  store i32 %40, i32* %6, align 4
  br label %28

41:                                               ; preds = %28
  %42 = load i32, i32* %5, align 4
  %43 = add nsw i32 %42, 1
  store i32 %43, i32* %6, align 4
  br label %44

44:                                               ; preds = %61, %41
  %45 = load i32, i32* %6, align 4
  %46 = sext i32 %45 to i64
  %47 = getelementptr inbounds [1000 x i8], [1000 x i8]* %2, i64 0, i64 %46
  %48 = load i8, i8* %47, align 1
  %49 = sext i8 %48 to i32
  %50 = icmp ne i32 %49, 0
  br i1 %50, label %51, label %64

51:                                               ; preds = %44
  %52 = load i32, i32* %6, align 4
  %53 = load i32, i32* %7, align 4
  %54 = add nsw i32 %52, %53
  %55 = sext i32 %54 to i64
  %56 = getelementptr inbounds [1000 x i8], [1000 x i8]* %2, i64 0, i64 %55
  %57 = load i8, i8* %56, align 1
  %58 = load i32, i32* %6, align 4
  %59 = sext i32 %58 to i64
  %60 = getelementptr inbounds [1000 x i8], [1000 x i8]* %2, i64 0, i64 %59
  store i8 %57, i8* %60, align 1
  br label %61

61:                                               ; preds = %51
  %62 = load i32, i32* %6, align 4
  %63 = add nsw i32 %62, 1
  store i32 %63, i32* %6, align 4
  br label %44

64:                                               ; preds = %44
  store i32 0, i32* %7, align 4
  br label %65

65:                                               ; preds = %64, %17
  br label %66

66:                                               ; preds = %65
  %67 = load i32, i32* %5, align 4
  %68 = add nsw i32 %67, 1
  store i32 %68, i32* %5, align 4
  br label %10

69:                                               ; preds = %10
  %70 = getelementptr inbounds [1000 x i8], [1000 x i8]* %2, i64 0, i64 0
  %71 = call i32 (i8*, ...) @printf(i8* getelementptr inbounds ([3 x i8], [3 x i8]* @.str, i64 0, i64 0), i8* %70)
  %72 = load i32, i32* %1, align 4
  ret i32 %72
}

declare dso_local i32 @gets(...) #1

declare dso_local i32 @printf(i8*, ...) #1


!llvm.module.flags = !{!0}
!llvm.ident = !{!1}

!0 = !{i32 1, !"wchar_size", i32 4}
!1 = !{!"clang version 10.0.0-4ubuntu1 "}
