; ModuleID = 'source-C-CXX/61/2846.c'
source_filename = "source-C-CXX/61/2846.c"
target datalayout = "e-m:e-p270:32:32-p271:32:32-p272:64:64-i64:64-f80:128-n8:16:32:64-S128"
target triple = "x86_64-pc-linux-gnu"

@.str = private unnamed_addr constant [3 x i8] c"%s\00", align 1

; Function Attrs: nounwind sspstrong uwtable
define dso_local i32 @main() local_unnamed_addr #0 {
  %1 = alloca [1000 x i8], align 16
  %2 = getelementptr inbounds [1000 x i8], [1000 x i8]* %1, i64 0, i64 0
  call void @llvm.lifetime.start.p0i8(i64 1000, i8* nonnull %2) #4
  %3 = call i32 (i8*, ...) bitcast (i32 (...)* @gets to i32 (i8*, ...)*)(i8* nonnull %2) #4
  br label %4

4:                                                ; preds = %39, %0
  %5 = phi i64 [ %40, %39 ], [ 0, %0 ]
  %6 = phi i64 [ %41, %39 ], [ 1, %0 ]
  %7 = getelementptr inbounds [1000 x i8], [1000 x i8]* %1, i64 0, i64 %5
  %8 = load i8, i8* %7, align 1, !tbaa !5
  switch i8 %8, label %9 [
    i8 0, label %42
    i8 32, label %11
  ]

9:                                                ; preds = %4
  %10 = add nuw i64 %5, 1
  br label %39

11:                                               ; preds = %4
  %12 = add nuw i64 %5, 1
  %13 = getelementptr inbounds [1000 x i8], [1000 x i8]* %1, i64 0, i64 %12
  %14 = load i8, i8* %13, align 1, !tbaa !5
  %15 = icmp eq i8 %14, 32
  br i1 %15, label %21, label %16

16:                                               ; preds = %21, %11
  %17 = phi i32 [ 0, %11 ], [ %24, %21 ]
  %18 = icmp eq i8 %14, 0
  br i1 %18, label %39, label %19

19:                                               ; preds = %16
  %20 = zext i32 %17 to i64
  br label %29

21:                                               ; preds = %11, %21
  %22 = phi i64 [ %25, %21 ], [ %6, %11 ]
  %23 = phi i32 [ %24, %21 ], [ 0, %11 ]
  %24 = add nuw nsw i32 %23, 1
  %25 = add nuw i64 %22, 1
  %26 = getelementptr inbounds [1000 x i8], [1000 x i8]* %1, i64 0, i64 %25
  %27 = load i8, i8* %26, align 1, !tbaa !5
  %28 = icmp eq i8 %27, 32
  br i1 %28, label %21, label %16, !llvm.loop !8

29:                                               ; preds = %19, %29
  %30 = phi i64 [ %6, %19 ], [ %35, %29 ]
  %31 = phi i8* [ %13, %19 ], [ %36, %29 ]
  %32 = add nuw nsw i64 %30, %20
  %33 = getelementptr inbounds [1000 x i8], [1000 x i8]* %1, i64 0, i64 %32
  %34 = load i8, i8* %33, align 1, !tbaa !5
  store i8 %34, i8* %31, align 1, !tbaa !5
  %35 = add nuw i64 %30, 1
  %36 = getelementptr inbounds [1000 x i8], [1000 x i8]* %1, i64 0, i64 %35
  %37 = load i8, i8* %36, align 1, !tbaa !5
  %38 = icmp eq i8 %37, 0
  br i1 %38, label %39, label %29, !llvm.loop !10

39:                                               ; preds = %29, %9, %16
  %40 = phi i64 [ %10, %9 ], [ %12, %16 ], [ %12, %29 ]
  %41 = add nuw i64 %6, 1
  br label %4, !llvm.loop !11

42:                                               ; preds = %4
  %43 = call i32 (i8*, ...) @printf(i8* nonnull dereferenceable(1) getelementptr inbounds ([3 x i8], [3 x i8]* @.str, i64 0, i64 0), i8* nonnull %2)
  call void @llvm.lifetime.end.p0i8(i64 1000, i8* nonnull %2) #4
  ret i32 0
}

; Function Attrs: argmemonly mustprogress nofree nosync nounwind willreturn
declare void @llvm.lifetime.start.p0i8(i64 immarg, i8* nocapture) #1

declare i32 @gets(...) local_unnamed_addr #2

; Function Attrs: nofree nounwind
declare noundef i32 @printf(i8* nocapture noundef readonly, ...) local_unnamed_addr #3

; Function Attrs: argmemonly mustprogress nofree nosync nounwind willreturn
declare void @llvm.lifetime.end.p0i8(i64 immarg, i8* nocapture) #1


!llvm.module.flags = !{!0, !1, !2, !3}
!llvm.ident = !{!4}

!0 = !{i32 1, !"wchar_size", i32 4}
!1 = !{i32 7, !"PIC Level", i32 2}
!2 = !{i32 7, !"PIE Level", i32 2}
!3 = !{i32 7, !"uwtable", i32 1}
!4 = !{!"clang version 13.0.0"}
!5 = !{!6, !6, i64 0}
!6 = !{!"omnipotent char", !7, i64 0}
!7 = !{!"Simple C/C++ TBAA"}
!8 = distinct !{!8, !9}
!9 = !{!"llvm.loop.mustprogress"}
!10 = distinct !{!10, !9}
!11 = distinct !{!11, !9}
